target datalayout = "e-m:e-p270:32:32-p271:32:32-p272:64:64-i64:64-i128:128-f80:128-n8:16:32:64-S128"
target triple = "x86_64-pc-linux-gnu"

%struct.RangeCoder = type { i32, i32, i32 }

; Function Attrs: nounwind uwtable
define internal i32 @get_freq0(ptr noundef %0, i32 noundef %1, ptr noundef %2) #1 {
  %4 = alloca i32, align 4
  %5 = alloca ptr, align 8
  %6 = alloca i32, align 4
  %7 = alloca ptr, align 8
  store ptr %0, ptr %5, align 8, !tbaa !80
  store i32 %1, ptr %6, align 4, !tbaa !57
  store ptr %2, ptr %7, align 8, !tbaa !52
  %8 = load ptr, ptr %5, align 8, !tbaa !80
  %9 = getelementptr inbounds nuw %struct.RangeCoder, ptr %8, i32 0, i32 1
  %10 = load i32, ptr %9, align 4, !tbaa !82
  %11 = icmp eq i32 %10, 0
  br i1 %11, label %12, label %13

12:                                               ; preds = %3
  store i32 -1094995529, ptr %4, align 4
  br label %32

13:                                               ; preds = %3
  %14 = load i32, ptr %6, align 4, !tbaa !57
  %15 = zext i32 %14 to i64
  %16 = load ptr, ptr %5, align 8, !tbaa !80
  %17 = getelementptr inbounds nuw %struct.RangeCoder, ptr %16, i32 0, i32 0
  %18 = load i32, ptr %17, align 4, !tbaa !83
  %19 = load ptr, ptr %5, align 8, !tbaa !80
  %20 = getelementptr inbounds nuw %struct.RangeCoder, ptr %19, i32 0, i32 2
  %21 = load i32, ptr %20, align 4, !tbaa !84
  %22 = sub i32 %18, %21
  %23 = zext i32 %22 to i64
  %24 = mul i64 %15, %23
  %25 = load ptr, ptr %5, align 8, !tbaa !80
  %26 = getelementptr inbounds nuw %struct.RangeCoder, ptr %25, i32 0, i32 1
  %27 = load i32, ptr %26, align 4, !tbaa !82
  %28 = zext i32 %27 to i64
  %29 = udiv i64 %24, %28
  %30 = trunc i64 %29 to i32
  %31 = load ptr, ptr %7, align 8, !tbaa !52
  store i32 %30, ptr %31, align 4, !tbaa !57
  store i32 0, ptr %4, align 4
  br label %32

32:                                               ; preds = %13, %12
  %33 = load i32, ptr %4, align 4
  ret i32 %33
}