; Function Attrs: mustprogress nofree norecurse nosync nounwind willreturn memory(argmem: readwrite) uwtable
define internal range(i32 -1094995529, 1) i32 @get_freq0(ptr noundef readonly captures(none) %0, i32 noundef %1, ptr noundef writeonly captures(none) %2) #4 {
  %4 = getelementptr inbounds nuw i8, ptr %0, i64 4
  %5 = load i32, ptr %4, align 4, !tbaa !80
  %6 = icmp eq i32 %5, 0
  br i1 %6, label %18, label %7

7:                                                ; preds = %3
  %8 = zext i32 %1 to i64
  %9 = load i32, ptr %0, align 4, !tbaa !62
  %10 = getelementptr inbounds nuw i8, ptr %0, i64 8
  %11 = load i32, ptr %10, align 4, !tbaa !63
  %12 = sub i32 %9, %11
  %13 = zext i32 %12 to i64
  %14 = mul nuw i64 %13, %8
  %15 = zext i32 %5 to i64
  %16 = udiv i64 %14, %15
  %17 = trunc i64 %16 to i32
  store i32 %17, ptr %2, align 4, !tbaa !61
  br label %18

18:                                               ; preds = %3, %7
  %.0 = phi i32 [ 0, %7 ], [ -1094995529, %3 ]
  ret i32 %.0
}